; Function Attrs: nounwind uwtable
define internal range(i64 0, 4294967296) i64 @get_topo_level(ptr noundef readonly captures(none) %0, ptr noundef readonly captures(none) %1) #0 {
  %3 = getelementptr inbounds nuw i8, ptr %1, i64 184
  %4 = load ptr, ptr %3, align 8, !tbaa !188
  %5 = getelementptr i8, ptr %0, i64 64
  %.val = load i32, ptr %5, align 8, !tbaa !49
  %6 = load i32, ptr %4, align 8, !tbaa !143
  %7 = udiv i32 %.val, %6
  %8 = urem i32 %.val, %6
  %9 = getelementptr inbounds nuw i8, ptr %4, i64 8
  %10 = load i32, ptr %9, align 8, !tbaa !146
  %.not.i.i = icmp ugt i32 %10, %7
  br i1 %.not.i.i, label %._crit_edge4.i.i, label %st_mult.exit.i.i

._crit_edge4.i.i:                                 ; preds = %2
  %.phi.trans.insert.i.i = getelementptr inbounds nuw i8, ptr %4, i64 16
  %.pre.i.i = load ptr, ptr %.phi.trans.insert.i.i, align 8, !tbaa !147
  br label %21

st_mult.exit.i.i:                                 ; preds = %2
  %11 = add i32 %7, 1
  %12 = zext i32 %11 to i64
  %13 = getelementptr inbounds nuw i8, ptr %4, i64 16
  %14 = load ptr, ptr %13, align 8, !tbaa !147
  %15 = shl nuw nsw i64 %12, 3
  %16 = tail call ptr @xrealloc(ptr noundef %14, i64 noundef %15) #24
  store ptr %16, ptr %13, align 8, !tbaa !147
  %17 = load i32, ptr %9, align 8, !tbaa !146
  %.not332.i.i = icmp ugt i32 %17, %7
  br i1 %.not332.i.i, label %._crit_edge.i.i, label %.lr.ph.i.i

.lr.ph.i.i:                                       ; preds = %st_mult.exit.i.i, %.lr.ph.i.i
  %.0303.i.i = phi i32 [ %20, %.lr.ph.i.i ], [ %17, %st_mult.exit.i.i ]
  %18 = zext i32 %.0303.i.i to i64
  %19 = getelementptr inbounds nuw ptr, ptr %16, i64 %18
  store ptr null, ptr %19, align 8, !tbaa !148
  %20 = add i32 %.0303.i.i, 1
  %.not33.i.i = icmp ugt i32 %20, %7
  br i1 %.not33.i.i, label %._crit_edge.i.i, label %.lr.ph.i.i, !llvm.loop !149

._crit_edge.i.i:                                  ; preds = %.lr.ph.i.i, %st_mult.exit.i.i
  store i32 %11, ptr %9, align 8, !tbaa !146
  br label %21

21:                                               ; preds = %._crit_edge.i.i, %._crit_edge4.i.i
  %22 = phi ptr [ %.pre.i.i, %._crit_edge4.i.i ], [ %16, %._crit_edge.i.i ]
  %23 = zext i32 %7 to i64
  %24 = getelementptr inbounds nuw ptr, ptr %22, i64 %23
  %25 = load ptr, ptr %24, align 8, !tbaa !148
  %.not34.i.i = icmp eq ptr %25, null
  br i1 %.not34.i.i, label %26, label %topo_level_slab_at.exit

26:                                               ; preds = %21
  %27 = getelementptr inbounds nuw i8, ptr %4, i64 16
  %28 = load i32, ptr %4, align 8, !tbaa !143
  %29 = zext i32 %28 to i64
  %30 = getelementptr inbounds nuw i8, ptr %4, i64 4
  %31 = load i32, ptr %30, align 4, !tbaa !150
  %32 = zext i32 %31 to i64
  %33 = shl nuw nsw i64 %32, 2
  %34 = tail call ptr @xcalloc(i64 noundef %29, i64 noundef %33) #24
  %35 = load ptr, ptr %27, align 8, !tbaa !147
  %36 = getelementptr inbounds nuw ptr, ptr %35, i64 %23
  store ptr %34, ptr %36, align 8, !tbaa !148
  br label %topo_level_slab_at.exit

topo_level_slab_at.exit:                          ; preds = %21, %26
  %37 = phi ptr [ %25, %21 ], [ %34, %26 ]
  %38 = getelementptr inbounds nuw i8, ptr %4, i64 4
  %39 = load i32, ptr %38, align 4, !tbaa !150
  %40 = mul i32 %39, %8
  %41 = zext i32 %40 to i64
  %42 = getelementptr inbounds nuw i32, ptr %37, i64 %41
  %43 = load i32, ptr %42, align 4, !tbaa !47
  %44 = zext i32 %43 to i64
  ret i64 %44
}